target datalayout = "e-m:e-p270:32:32-p271:32:32-p272:64:64-i64:64-i128:128-f80:128-n8:16:32:64-S128"
target triple = "x86_64-pc-linux-gnu"

%struct.RelFileLocator = type { i32, i32, i32 }
%struct.FullTransactionId = type { i64 }

@wal_level = external global i32, align 4

; Function Attrs: nounwind uwtable
define dso_local void @ResolveRecoveryConflictWithSnapshot(i32 noundef %0, i1 noundef zeroext %1, i64 %2, i32 %3) #0 {
  %5 = alloca %struct.RelFileLocator, align 4
  %6 = alloca { i64, i32 }, align 4
  %7 = alloca i32, align 4
  %8 = alloca i8, align 1
  %9 = alloca ptr, align 8
  %10 = alloca i32, align 4
  %11 = getelementptr inbounds nuw { i64, i32 }, ptr %6, i32 0, i32 0
  store i64 %2, ptr %11, align 4
  %12 = getelementptr inbounds nuw { i64, i32 }, ptr %6, i32 0, i32 1
  store i32 %3, ptr %12, align 4
  call void @llvm.memcpy.p0.p0.i64(ptr align 4 %5, ptr align 4 %6, i64 12, i1 false)
  store i32 %0, ptr %7, align 4
  %13 = zext i1 %1 to i8
  store i8 %13, ptr %8, align 1
  call void @llvm.lifetime.start.p0(i64 8, ptr %9) #8
  %14 = load i32, ptr %7, align 4
  %15 = icmp ne i32 %14, 0
  br i1 %15, label %17, label %16

16:                                               ; preds = %4
  store i32 1, ptr %10, align 4
  br label %34

17:                                               ; preds = %4
  %18 = load i32, ptr %7, align 4
  %19 = getelementptr inbounds nuw %struct.RelFileLocator, ptr %5, i32 0, i32 1
  %20 = load i32, ptr %19, align 4
  %21 = call ptr @GetConflictingVirtualXIDs(i32 noundef %18, i32 noundef %20)
  store ptr %21, ptr %9, align 8
  %22 = load ptr, ptr %9, align 8
  call void @ResolveRecoveryConflictWithVirtualXIDs(ptr noundef %22, i32 noundef 10, i32 noundef 134217772, i1 noundef zeroext true)
  %23 = load i32, ptr @wal_level, align 4
  %24 = icmp sge i32 %23, 2
  br i1 %24, label %25, label %33

25:                                               ; preds = %17
  %26 = load i8, ptr %8, align 1, !range !7, !noundef !8
  %27 = trunc i8 %26 to i1
  br i1 %27, label %28, label %33

28:                                               ; preds = %25
  %29 = getelementptr inbounds nuw %struct.RelFileLocator, ptr %5, i32 0, i32 1
  %30 = load i32, ptr %29, align 4
  %31 = load i32, ptr %7, align 4
  %32 = call zeroext i1 @InvalidateObsoleteReplicationSlots(i32 noundef 2, i64 noundef 0, i32 noundef %30, i32 noundef %31)
  br label %33

33:                                               ; preds = %28, %25, %17
  store i32 0, ptr %10, align 4
  br label %34

34:                                               ; preds = %33, %16
  call void @llvm.lifetime.end.p0(i64 8, ptr %9) #8
  %35 = load i32, ptr %10, align 4
  switch i32 %35, label %37 [
    i32 0, label %36
    i32 1, label %36
  ]

36:                                               ; preds = %34, %34
  ret void

37:                                               ; preds = %34
  unreachable
}

; Function Attrs: nounwind uwtable
define dso_local void @ResolveRecoveryConflictWithSnapshotFullXid(i64 %0, i1 noundef zeroext %1, i64 %2, i32 %3) #0 {
  %5 = alloca %struct.FullTransactionId, align 8
  %6 = alloca %struct.RelFileLocator, align 4
  %7 = alloca { i64, i32 }, align 4
  %8 = alloca i8, align 1
  %9 = alloca %struct.FullTransactionId, align 8
  %10 = alloca i64, align 8
  %11 = alloca i32, align 4
  %12 = alloca { i64, i32 }, align 4
  %13 = getelementptr inbounds nuw %struct.FullTransactionId, ptr %5, i32 0, i32 0
  store i64 %0, ptr %13, align 8
  %14 = getelementptr inbounds nuw { i64, i32 }, ptr %7, i32 0, i32 0
  store i64 %2, ptr %14, align 4
  %15 = getelementptr inbounds nuw { i64, i32 }, ptr %7, i32 0, i32 1
  store i32 %3, ptr %15, align 4
  call void @llvm.memcpy.p0.p0.i64(ptr align 4 %6, ptr align 4 %7, i64 12, i1 false)
  %16 = zext i1 %1 to i8
  store i8 %16, ptr %8, align 1
  call void @llvm.lifetime.start.p0(i64 8, ptr %9) #8
  %17 = call i64 @ReadNextFullTransactionId()
  %18 = getelementptr inbounds nuw %struct.FullTransactionId, ptr %9, i32 0, i32 0
  store i64 %17, ptr %18, align 8
  call void @llvm.lifetime.start.p0(i64 8, ptr %10) #8
  %19 = getelementptr inbounds nuw %struct.FullTransactionId, ptr %9, i32 0, i32 0
  %20 = load i64, ptr %19, align 8
  %21 = getelementptr inbounds nuw %struct.FullTransactionId, ptr %5, i32 0, i32 0
  %22 = load i64, ptr %21, align 8
  %23 = sub i64 %20, %22
  store i64 %23, ptr %10, align 8
  %24 = load i64, ptr %10, align 8
  %25 = icmp ult i64 %24, 2147483647
  br i1 %25, label %26, label %37

26:                                               ; preds = %4
  call void @llvm.lifetime.start.p0(i64 4, ptr %11) #8
  %27 = getelementptr inbounds nuw %struct.FullTransactionId, ptr %5, i32 0, i32 0
  %28 = load i64, ptr %27, align 8
  %29 = trunc i64 %28 to i32
  store i32 %29, ptr %11, align 4
  %30 = load i32, ptr %11, align 4
  %31 = load i8, ptr %8, align 1, !range !7, !noundef !8
  %32 = trunc i8 %31 to i1
  call void @llvm.memcpy.p0.p0.i64(ptr align 4 %12, ptr align 4 %6, i64 12, i1 false)
  %33 = getelementptr inbounds nuw { i64, i32 }, ptr %12, i32 0, i32 0
  %34 = load i64, ptr %33, align 4
  %35 = getelementptr inbounds nuw { i64, i32 }, ptr %12, i32 0, i32 1
  %36 = load i32, ptr %35, align 4
  call void @ResolveRecoveryConflictWithSnapshot(i32 noundef %30, i1 noundef zeroext %32, i64 %34, i32 %36)
  call void @llvm.lifetime.end.p0(i64 4, ptr %11) #8
  br label %37

37:                                               ; preds = %26, %4
  call void @llvm.lifetime.end.p0(i64 8, ptr %10) #8
  call void @llvm.lifetime.end.p0(i64 8, ptr %9) #8
  ret void
}