; Function Attrs: nounwind uwtable
define dso_local void @ResolveRecoveryConflictWithSnapshotFullXid(i64 %0, i1 noundef zeroext %1, i64 %2, i32 %3) local_unnamed_addr #0 {
  %5 = tail call i64 @ReadNextFullTransactionId() #7
  %6 = sub i64 %5, %0
  %7 = icmp ult i64 %6, 2147483647
  br i1 %7, label %8, label %ResolveRecoveryConflictWithSnapshot.exit

8:                                                ; preds = %4
  %9 = trunc i64 %0 to i32
  %.sroa.1.0.extract.shift.i = lshr i64 %2, 32
  %.sroa.1.0.extract.trunc.i = trunc nuw i64 %.sroa.1.0.extract.shift.i to i32
  %.not.i = icmp eq i32 %9, 0
  br i1 %.not.i, label %ResolveRecoveryConflictWithSnapshot.exit, label %10

10:                                               ; preds = %8
  %11 = tail call ptr @GetConflictingVirtualXIDs(i32 noundef %9, i32 noundef %.sroa.1.0.extract.trunc.i) #7
  tail call fastcc void @ResolveRecoveryConflictWithVirtualXIDs(ptr noundef %11, i32 noundef 10, i32 noundef 134217772, i1 noundef zeroext true)
  %12 = load i32, ptr @wal_level, align 4
  %13 = icmp sgt i32 %12, 1
  %brmerge.not.i = and i1 %1, %13
  br i1 %brmerge.not.i, label %14, label %ResolveRecoveryConflictWithSnapshot.exit

14:                                               ; preds = %10
  %15 = tail call zeroext i1 @InvalidateObsoleteReplicationSlots(i32 noundef 2, i64 noundef 0, i32 noundef %.sroa.1.0.extract.trunc.i, i32 noundef %9) #7
  br label %ResolveRecoveryConflictWithSnapshot.exit

ResolveRecoveryConflictWithSnapshot.exit:         ; preds = %14, %10, %8, %4
  ret void
}